target datalayout = "e-m:e-p270:32:32-p271:32:32-p272:64:64-i64:64-i128:128-f80:128-n8:16:32:64-S128"
target triple = "x86_64-pc-linux-gnu"

@epos = internal global i64 0, align 8
@.str.10 = private unnamed_addr constant [53 x i8] c"Failed to read annotations from AOF %s, aborting...\0A\00", align 1
@to_timestamp = internal global i64 0, align 8
@.str.11 = private unnamed_addr constant [5 x i8] c"#TS:\00", align 1
@.str.12 = private unnamed_addr constant [30 x i8] c"Invalid timestamp annotation\0A\00", align 1
@.str.13 = private unnamed_addr constant [54 x i8] c"AOF %s has nothing before timestamp %ld, aborting...\0A\00", align 1
@.str.14 = private unnamed_addr constant [91 x i8] c"Failed to truncate AOF %s to timestamp %ld to offset %ld because it is not the last file.\0A\00", align 1
@.str.15 = private unnamed_addr constant [180 x i8] c"If you insist, please delete all files after this file according to the manifest file and delete the corresponding records in manifest file manually. Then re-run redis-check-aof.\0A\00", align 1
@.str.16 = private unnamed_addr constant [44 x i8] c"Failed to truncate AOF %s to timestamp %ld\0A\00", align 1

; Function Attrs: nounwind uwtable
define dso_local i32 @processAnnotations(ptr noundef %0, ptr noundef %1, i32 noundef %2) #0 {
  %4 = alloca i32, align 4
  %5 = alloca ptr, align 8
  %6 = alloca ptr, align 8
  %7 = alloca i32, align 4
  %8 = alloca [1024 x i8], align 16
  %9 = alloca ptr, align 8
  %10 = alloca i64, align 8
  %11 = alloca i32, align 4
  store ptr %0, ptr %5, align 8, !tbaa !15
  store ptr %1, ptr %6, align 8, !tbaa !5
  store i32 %2, ptr %7, align 4, !tbaa !23
  call void @llvm.lifetime.start.p0(i64 1024, ptr %8) #10
  %12 = load ptr, ptr %5, align 8, !tbaa !15
  %13 = call i64 @ftello64(ptr noundef %12)
  store i64 %13, ptr @epos, align 8, !tbaa !11
  %14 = getelementptr inbounds [1024 x i8], ptr %8, i64 0, i64 0
  %15 = load ptr, ptr %5, align 8, !tbaa !15
  %16 = call ptr @fgets(ptr noundef %14, i32 noundef 1024, ptr noundef %15)
  %17 = icmp eq ptr %16, null
  br i1 %17, label %18, label %21

18:                                               ; preds = %3
  %19 = load ptr, ptr %6, align 8, !tbaa !5
  %20 = call i32 (ptr, ...) @printf(ptr noundef @.str.10, ptr noundef %19)
  call void @exit(i32 noundef 1) #12
  unreachable

21:                                               ; preds = %3
  %22 = load i64, ptr @to_timestamp, align 8, !tbaa !11
  %23 = icmp ne i64 %22, 0
  br i1 %23, label %24, label %76

24:                                               ; preds = %21
  %25 = getelementptr inbounds [1024 x i8], ptr %8, i64 0, i64 0
  %26 = call i32 @strncmp(ptr noundef %25, ptr noundef @.str.11, i64 noundef 4) #9
  %27 = icmp eq i32 %26, 0
  br i1 %27, label %28, label %76

28:                                               ; preds = %24
  call void @llvm.lifetime.start.p0(i64 8, ptr %9) #10
  %29 = call ptr @__errno_location() #13
  store i32 0, ptr %29, align 4, !tbaa !23
  call void @llvm.lifetime.start.p0(i64 8, ptr %10) #10
  %30 = getelementptr inbounds [1024 x i8], ptr %8, i64 0, i64 0
  %31 = getelementptr inbounds i8, ptr %30, i64 4
  %32 = call i64 @strtol(ptr noundef %31, ptr noundef %9, i32 noundef 10) #10
  store i64 %32, ptr %10, align 8, !tbaa !11
  %33 = call ptr @__errno_location() #13
  %34 = load i32, ptr %33, align 4, !tbaa !23
  %35 = icmp ne i32 %34, 0
  br i1 %35, label %41, label %36

36:                                               ; preds = %28
  %37 = load ptr, ptr %9, align 8, !tbaa !5
  %38 = load i8, ptr %37, align 1, !tbaa !10
  %39 = sext i8 %38 to i32
  %40 = icmp ne i32 %39, 13
  br i1 %40, label %41, label %43

41:                                               ; preds = %36, %28
  %42 = call i32 (ptr, ...) @printf(ptr noundef @.str.12)
  call void @exit(i32 noundef 1) #12
  unreachable

43:                                               ; preds = %36
  %44 = load i64, ptr %10, align 8, !tbaa !11
  %45 = load i64, ptr @to_timestamp, align 8, !tbaa !11
  %46 = icmp sle i64 %44, %45
  br i1 %46, label %47, label %48

47:                                               ; preds = %43
  store i32 1, ptr %4, align 4
  store i32 1, ptr %11, align 4
  br label %75

48:                                               ; preds = %43
  %49 = load i64, ptr @epos, align 8, !tbaa !11
  %50 = icmp eq i64 %49, 0
  br i1 %50, label %51, label %55

51:                                               ; preds = %48
  %52 = load ptr, ptr %6, align 8, !tbaa !5
  %53 = load i64, ptr @to_timestamp, align 8, !tbaa !11
  %54 = call i32 (ptr, ...) @printf(ptr noundef @.str.13, ptr noundef %52, i64 noundef %53)
  call void @exit(i32 noundef 1) #12
  unreachable

55:                                               ; preds = %48
  %56 = load i32, ptr %7, align 4, !tbaa !23
  %57 = icmp ne i32 %56, 0
  br i1 %57, label %64, label %58

58:                                               ; preds = %55
  %59 = load ptr, ptr %6, align 8, !tbaa !5
  %60 = load i64, ptr @to_timestamp, align 8, !tbaa !11
  %61 = load i64, ptr @epos, align 8, !tbaa !11
  %62 = call i32 (ptr, ...) @printf(ptr noundef @.str.14, ptr noundef %59, i64 noundef %60, i64 noundef %61)
  %63 = call i32 (ptr, ...) @printf(ptr noundef @.str.15)
  call void @exit(i32 noundef 1) #12
  unreachable

64:                                               ; preds = %55
  %65 = load ptr, ptr %5, align 8, !tbaa !15
  %66 = call i32 @fileno(ptr noundef %65) #10
  %67 = load i64, ptr @epos, align 8, !tbaa !11
  %68 = call i32 @ftruncate64(i32 noundef %66, i64 noundef %67) #10
  %69 = icmp eq i32 %68, -1
  br i1 %69, label %70, label %74

70:                                               ; preds = %64
  %71 = load ptr, ptr %6, align 8, !tbaa !5
  %72 = load i64, ptr @to_timestamp, align 8, !tbaa !11
  %73 = call i32 (ptr, ...) @printf(ptr noundef @.str.16, ptr noundef %71, i64 noundef %72)
  call void @exit(i32 noundef 1) #12
  unreachable

74:                                               ; preds = %64
  store i32 0, ptr %4, align 4
  store i32 1, ptr %11, align 4
  br label %75

75:                                               ; preds = %74, %47
  call void @llvm.lifetime.end.p0(i64 8, ptr %10) #10
  call void @llvm.lifetime.end.p0(i64 8, ptr %9) #10
  br label %77

76:                                               ; preds = %24, %21
  store i32 1, ptr %4, align 4
  store i32 1, ptr %11, align 4
  br label %77

77:                                               ; preds = %76, %75
  call void @llvm.lifetime.end.p0(i64 1024, ptr %8) #10
  %78 = load i32, ptr %4, align 4
  ret i32 %78
}