; Function Attrs: nounwind uwtable
define dso_local range(i32 0, 2) i32 @processAnnotations(ptr noundef captures(none) %0, ptr noundef %1, i32 noundef %2) local_unnamed_addr #4 {
  %4 = alloca [1024 x i8], align 16
  %5 = alloca ptr, align 8
  call void @llvm.lifetime.start.p0(i64 1024, ptr nonnull %4) #16
  %6 = tail call i64 @ftello64(ptr noundef %0)
  store i64 %6, ptr @epos, align 8, !tbaa !8
  %7 = call ptr @fgets(ptr noundef nonnull %4, i32 noundef 1024, ptr noundef %0)
  %8 = icmp eq ptr %7, null
  br i1 %8, label %9, label %11

9:                                                ; preds = %3
  %10 = call i32 (ptr, ...) @printf(ptr noundef nonnull dereferenceable(1) @.str.10, ptr noundef %1)
  call void @exit(i32 noundef 1) #19
  unreachable

11:                                               ; preds = %3
  %12 = load i64, ptr @to_timestamp, align 8, !tbaa !8
  %.not = icmp ne i64 %12, 0
  %lhsv = load i32, ptr %4, align 16
  %.not12 = icmp eq i32 %lhsv, 978539555
  %or.cond = select i1 %.not, i1 %.not12, i1 false
  br i1 %or.cond, label %13, label %41

13:                                               ; preds = %11
  call void @llvm.lifetime.start.p0(i64 8, ptr nonnull %5) #16
  %14 = tail call ptr @__errno_location() #20
  store i32 0, ptr %14, align 4, !tbaa !15
  %15 = getelementptr inbounds nuw i8, ptr %4, i64 4
  %16 = call i64 @strtol(ptr noundef nonnull %15, ptr noundef nonnull %5, i32 noundef 10) #16
  %17 = load i32, ptr %14, align 4, !tbaa !15
  %.not13 = icmp eq i32 %17, 0
  br i1 %.not13, label %18, label %21

18:                                               ; preds = %13
  %19 = load ptr, ptr %5, align 8, !tbaa !12
  %20 = load i8, ptr %19, align 1, !tbaa !5
  %.not14 = icmp eq i8 %20, 13
  br i1 %.not14, label %22, label %21

21:                                               ; preds = %18, %13
  %puts17 = call i32 @puts(ptr nonnull dereferenceable(1) @str.1)
  call void @exit(i32 noundef 1) #19
  unreachable

22:                                               ; preds = %18
  %23 = load i64, ptr @to_timestamp, align 8, !tbaa !8
  %.not15 = icmp sgt i64 %16, %23
  br i1 %.not15, label %24, label %40

24:                                               ; preds = %22
  %25 = load i64, ptr @epos, align 8, !tbaa !8
  %26 = icmp eq i64 %25, 0
  br i1 %26, label %27, label %29

27:                                               ; preds = %24
  %28 = call i32 (ptr, ...) @printf(ptr noundef nonnull dereferenceable(1) @.str.13, ptr noundef %1, i64 noundef %23)
  call void @exit(i32 noundef 1) #19
  unreachable

29:                                               ; preds = %24
  %.not16 = icmp eq i32 %2, 0
  br i1 %.not16, label %30, label %32

30:                                               ; preds = %29
  %31 = call i32 (ptr, ...) @printf(ptr noundef nonnull dereferenceable(1) @.str.14, ptr noundef %1, i64 noundef %23, i64 noundef %25)
  %puts = call i32 @puts(ptr nonnull dereferenceable(1) @str)
  call void @exit(i32 noundef 1) #19
  unreachable

32:                                               ; preds = %29
  %33 = call i32 @fileno(ptr noundef %0) #16
  %34 = load i64, ptr @epos, align 8, !tbaa !8
  %35 = call i32 @ftruncate64(i32 noundef %33, i64 noundef %34) #16
  %36 = icmp eq i32 %35, -1
  br i1 %36, label %37, label %40

37:                                               ; preds = %32
  %38 = load i64, ptr @to_timestamp, align 8, !tbaa !8
  %39 = call i32 (ptr, ...) @printf(ptr noundef nonnull dereferenceable(1) @.str.16, ptr noundef %1, i64 noundef %38)
  call void @exit(i32 noundef 1) #19
  unreachable

40:                                               ; preds = %32, %22
  %.0 = phi i32 [ 1, %22 ], [ 0, %32 ]
  call void @llvm.lifetime.end.p0(i64 8, ptr nonnull %5) #16
  br label %41

41:                                               ; preds = %11, %40
  %.1 = phi i32 [ %.0, %40 ], [ 1, %11 ]
  call void @llvm.lifetime.end.p0(i64 1024, ptr nonnull %4) #16
  ret i32 %.1
}